     1 00000000                                 ;hello-os
     2 00000000                                 ;TAB=4
     3 00000000                                 
     4  = 0000000A                                  CYLS  EQU  10 				; 柱面数
     5                                              ORG 0x7c00 ;启动程序的装载地址一般为0x7c00~0x7dff
     6 00007C00                                 
     7 00007C00 EB 4E                               jmp entry
     8 00007C02 90                              	DB		0x90
     9 00007C03                                     ;标准的FAT12格式软盘的必备专用的代码 Stand FAT12 format floppy code，即书写在开头的文件描述系统
    10 00007C03                                 
    11 00007C03 48 41 52 49 42 4F 54 45         		DB		"HARIBOTE"		; 启动扇区名称（8字节）
    12 00007C0B 0200                            		DW		512				; 每个扇区（sector）大小（必须512字节）
    13 00007C0D 01                              		DB		1				; 簇（cluster）大小（必须为1个扇区）
    14 00007C0E 0001                            		DW		1				; FAT起始位置（一般为第一个扇区）
    15 00007C10 02                              		DB		2				; FAT个数（必须为2）
    16 00007C11 00E0                            		DW		224				; 根目录大小（一般为224项）
    17 00007C13 0B40                            		DW		2880			; 该磁盘大小（必须为2880扇区1440*1024/512）
    18 00007C15 F0                              		DB		0xf0			; 磁盘类型（必须为0xf0）
    19 00007C16 0009                            		DW		9				; FAT的长度（必须是9扇区）
    20 00007C18 0012                            		DW		18				; 一个磁道（track）有几个扇区（必须为18）
    21 00007C1A 0002                            		DW		2				; 磁头数（必须是2）
    22 00007C1C 00000000                        		DD		0				; 不使用分区，必须是0
    23 00007C20 00000B40                        		DD		2880			; 重写一次磁盘大小
    24 00007C24 00 00 29                        		DB		0,0,0x29		; 意义不明（固定）
    25 00007C27 FFFFFFFF                        		DD		0xffffffff		; （可能是）卷标号码
    26 00007C2B 48 41 52 49 42 4F 54 45 4F 53   		DB		"HARIBOTEOS "	; 磁盘的名称（必须为11字字节，不足填空格）
       00007C35 20 
    27 00007C36 46 41 54 31 32 20 20 20         		DB		"FAT12   "		; 磁盘格式名称（必须8字，不足填空格）
    28 00007C3E 00 00 00 00 00 00 00 00 00 00   		RESB	18				; 先空出18字节
       00007C48 00 00 00 00 00 00 00 00 
    29 00007C50                                 
    30 00007C50                                 ;程序主主体
    31 00007C50                                     entry:
    32 00007C50                                     ;将启动区的初始段地址（0000）设置给以及将启动扇区的偏移地址（7c00)进行设置到栈和数据段中
    33 00007C50 B8 0000                                  mov ax,0
    34 00007C53 8E D0                                    mov ss,ax
    35 00007C55 BC 7C00                                  mov sp,0x7c00
    36 00007C58 8E D8                                    mov ds,ax
    37 00007C5A                                 
    38 00007C5A                                 	; 磁盘读取部分
    39 00007C5A B8 0820                         		 mov ax, 0x0820
    40 00007C5D 8E C0                           		 mov es, ax
    41 00007C5F B5 00                           		 mov ch, 0      ; 柱面
    42 00007C61 B6 00                           		 mov dh, 0		; 磁头
    43 00007C63 B1 02                           		 mov cl, 2		; 扇区
    44 00007C65                                 
    45 00007C65                                 	readloop:
    46 00007C65 BE 0000                         		 mov si, 0		; 记录失败次数的寄存器 
    47 00007C68                                 
    48 00007C68                                 	retry:
    49 00007C68 B4 02                           		 mov ah, 0x02	; 读盘
    50 00007C6A B0 01                           		 mov al, 1		; 1个扇区
    51 00007C6C BB 0000                         		 mov bx, 0
    52 00007C6F B2 00                           		 mov dl, 0x00	; A驱动器
    53 00007C71 CD 13                           		 int 0x13		; 调用BIOS
    54 00007C73 73 10                           		 jnc next
    55 00007C75 83 C6 01                        		 add si, 1
    56 00007C78 83 FE 05                        		 cmp si, 5
    57 00007C7B 73 47                           		 JAE error
    58 00007C7D B4 00                           		 mov ah, 0x00	 
    59 00007C7F B2 00                           		 mov dl, 0x00
    60 00007C81 CD 13                           		 int 0x13
    61 00007C83 EB E3                           		 jmp retry
    62 00007C85                                 	
    63 00007C85                                 	next:
    64 00007C85 8C C0                           		mov ax, es		; 把内存地址后移0x200
    65 00007C87 05 0020                         		add ax, 0x0020
    66 00007C8A 8E C0                           		mov es, ax
    67 00007C8C 80 C1 01                        		add cl, 1
    68 00007C8F 80 F9 12                        		cmp cl, 18
    69 00007C92 76 D1                           		jbe readloop
    70 00007C94 B1 01                           		mov cl, 1
    71 00007C96 80 C6 01                        		add dh, 1
    72 00007C99 80 FE 02                        		cmp dh, 2
    73 00007C9C 72 C7                           		jb readloop
    74 00007C9E B6 00                           		mov dh, 0
    75 00007CA0 80 C5 01                        		add ch, 1
    76 00007CA3 80 FD 0A                        		cmp ch, CYLS
    77 00007CA6 72 BD                           		jb readloop
    78 00007CA8                                 
    79 00007CA8 88 2E 0FF0                      		MOV       [0x0ff0],CH         ; 将cyls的值移动到0x0ff0当中，为了告诉sys磁盘装载内容的结束地址，因为cyls代表了10个柱面
    80 00007CAC E9 4551                                 JMP       0xc200
    81 00007CAF                                 
    82 00007CAF                                 
    83 00007CAF                                 ;程序启动后我们想要显示的内容
    84 00007CAF                                     putloop:
    85 00007CAF 8A 04                                    mov al,[si]
    86 00007CB1 83 C6 01                                 add si,1   ; 给SI加1,循环打印
    87 00007CB4 3C 00                                    cmp al,0
    88 00007CB6 74 09                                    je fin  ;若数据内存该处的值为零，则该程序终止
    89 00007CB8 B4 0E                                    mov ah,0x0e  ; 显示一个文字，调用0x0e号子中断程序
    90 00007CBA BB 000F                                  mov bx, 15
    91 00007CBD CD 10                                    int 0x10 ; 设置中断程序。10h号中断代表显示字符串，调用bios的中断
    92 00007CBF EB EE                                    jmp putloop 
    93 00007CC1                                 
    94 00007CC1                                     fin: 
    95 00007CC1 F4                                       HLT ;cpu停止运行，等待指令，节约资源
    96 00007CC2 EB FD                                    jmp fin ; 无限循环
    97 00007CC4                                 
    98 00007CC4                                 	error:
    99 00007CC4 BE 7CC7                                  mov si, msg
   100 00007CC7                                 
   101 00007CC7                                     msg:
   102 00007CC7 0A 0A                                   DB		0x0a, 0x0a		; 换行两次
   103 00007CC9 6C 6F 61 64 20 65 72 72 6F 72   		DB		"load error"
   104 00007CD3 0A                              		DB      0x0a
   105 00007CD4 4F 53 20 6D 61 64 65 20 62 79   		DB      "OS made by FH"
       00007CDE 20 46 48 
   106 00007CE1 0A                              		DB		0x0a			; 换行
   107 00007CE2 00                              		DB		0
   108 00007CE3                                 
   109 00007CE3 00 00 00 00 00 00 00 00 00 00   		RESB	0x7dfe-$		; 填写0x00直到0x001fe
       00007CED 00 00 00 00 00 00 00 00 00 00 
       00007CF7 00 00 00 00 00 00 00 00 00 00 
       00007D01 00 00 00 00 00 00 00 00 00 00 
       00007D0B 00 00 00 00 00 00 00 00 00 00 
       00007D15 00 00 00 00 00 00 00 00 00 00 
       00007D1F 00 00 00 00 00 00 00 00 00 00 
       00007D29 00 00 00 00 00 00 00 00 00 00 
       00007D33 00 00 00 00 00 00 00 00 00 00 
       00007D3D 00 00 00 00 00 00 00 00 00 00 
       00007D47 00 00 00 00 00 00 00 00 00 00 
       00007D51 00 00 00 00 00 00 00 00 00 00 
       00007D5B 00 00 00 00 00 00 00 00 00 00 
       00007D65 00 00 00 00 00 00 00 00 00 00 
       00007D6F 00 00 00 00 00 00 00 00 00 00 
       00007D79 00 00 00 00 00 00 00 00 00 00 
       00007D83 00 00 00 00 00 00 00 00 00 00 
       00007D8D 00 00 00 00 00 00 00 00 00 00 
       00007D97 00 00 00 00 00 00 00 00 00 00 
       00007DA1 00 00 00 00 00 00 00 00 00 00 
       00007DAB 00 00 00 00 00 00 00 00 00 00 
       00007DB5 00 00 00 00 00 00 00 00 00 00 
       00007DBF 00 00 00 00 00 00 00 00 00 00 
       00007DC9 00 00 00 00 00 00 00 00 00 00 
       00007DD3 00 00 00 00 00 00 00 00 00 00 
       00007DDD 00 00 00 00 00 00 00 00 00 00 
       00007DE7 00 00 00 00 00 00 00 00 00 00 
       00007DF1 00 00 00 00 00 00 00 00 00 00 
       00007DFB 00 00 00 
   110 00007DFE                                 
   111 00007DFE 55 AA                           		DB		0x55, 0xaa  ;这里标志着有启动程序，因为计算机一般先读最后两字节进行判断是否含启动程序的！！
   112 00007E00                                 
